target datalayout = "e-m:e-p270:32:32-p271:32:32-p272:64:64-i64:64-i128:128-f80:128-n8:16:32:64-S128"
target triple = "x86_64-pc-linux-gnu"

%struct.FunctionCallInfoBaseData = type { ptr, ptr, ptr, i32, i8, i16, [0 x %struct.NullableDatum] }
%struct.NullableDatum = type { i64, i8 }
%struct.nameData = type { [64 x i8] }
%struct.varattrib_1b = type { i8, [0 x i8] }
%struct.anon = type { i32, [0 x i8] }
%struct.varattrib_1b_e = type { i8, i8, [0 x i8] }

; Function Attrs: inlinehint nounwind uwtable
define internal i64 @BoolGetDatum(i1 noundef zeroext %0) #2 {
  %2 = alloca i8, align 1
  %3 = zext i1 %0 to i8
  store i8 %3, ptr %2, align 1
  %4 = load i8, ptr %2, align 1, !range !4, !noundef !5
  %5 = trunc i8 %4 to i1
  %6 = select i1 %5, i32 1, i32 0
  %7 = sext i32 %6 to i64
  ret i64 %7
}

; Function Attrs: inlinehint nounwind uwtable
define internal ptr @DatumGetPointer(i64 noundef %0) #2 {
  %2 = alloca i64, align 8
  store i64 %0, ptr %2, align 8
  %3 = load i64, ptr %2, align 8
  %4 = inttoptr i64 %3 to ptr
  ret ptr %4
}

; Function Attrs: inlinehint nounwind uwtable
define internal ptr @DatumGetName(i64 noundef %0) #2 {
  %2 = alloca i64, align 8
  store i64 %0, ptr %2, align 8
  %3 = load i64, ptr %2, align 8
  %4 = call ptr @DatumGetPointer(i64 noundef %3)
  ret ptr %4
}

; Function Attrs: nounwind uwtable
define dso_local i64 @namelike(ptr noundef %0) #0 {
  %2 = alloca ptr, align 8
  %3 = alloca ptr, align 8
  %4 = alloca ptr, align 8
  %5 = alloca i8, align 1
  %6 = alloca ptr, align 8
  %7 = alloca ptr, align 8
  %8 = alloca i32, align 4
  %9 = alloca i32, align 4
  store ptr %0, ptr %2, align 8
  call void @llvm.lifetime.start.p0(i64 8, ptr %3) #8
  %10 = load ptr, ptr %2, align 8
  %11 = getelementptr inbounds nuw %struct.FunctionCallInfoBaseData, ptr %10, i32 0, i32 6
  %12 = getelementptr inbounds [0 x %struct.NullableDatum], ptr %11, i64 0, i64 0
  %13 = getelementptr inbounds nuw %struct.NullableDatum, ptr %12, i32 0, i32 0
  %14 = load i64, ptr %13, align 8
  %15 = call ptr @DatumGetName(i64 noundef %14)
  store ptr %15, ptr %3, align 8
  call void @llvm.lifetime.start.p0(i64 8, ptr %4) #8
  %16 = load ptr, ptr %2, align 8
  %17 = getelementptr inbounds nuw %struct.FunctionCallInfoBaseData, ptr %16, i32 0, i32 6
  %18 = getelementptr inbounds [0 x %struct.NullableDatum], ptr %17, i64 0, i64 1
  %19 = getelementptr inbounds nuw %struct.NullableDatum, ptr %18, i32 0, i32 0
  %20 = load i64, ptr %19, align 8
  %21 = call ptr @DatumGetPointer(i64 noundef %20)
  %22 = call ptr @pg_detoast_datum_packed(ptr noundef %21)
  store ptr %22, ptr %4, align 8
  call void @llvm.lifetime.start.p0(i64 1, ptr %5) #8
  call void @llvm.lifetime.start.p0(i64 8, ptr %6) #8
  call void @llvm.lifetime.start.p0(i64 8, ptr %7) #8
  call void @llvm.lifetime.start.p0(i64 4, ptr %8) #8
  call void @llvm.lifetime.start.p0(i64 4, ptr %9) #8
  %23 = load ptr, ptr %3, align 8
  %24 = getelementptr inbounds nuw %struct.nameData, ptr %23, i32 0, i32 0
  %25 = getelementptr inbounds [64 x i8], ptr %24, i64 0, i64 0
  store ptr %25, ptr %6, align 8
  %26 = load ptr, ptr %6, align 8
  %27 = call i64 @strlen(ptr noundef %26) #9
  %28 = trunc i64 %27 to i32
  store i32 %28, ptr %8, align 4
  %29 = load ptr, ptr %4, align 8
  %30 = getelementptr inbounds nuw %struct.varattrib_1b, ptr %29, i32 0, i32 0
  %31 = load i8, ptr %30, align 1
  %32 = zext i8 %31 to i32
  %33 = and i32 %32, 1
  %34 = icmp eq i32 %33, 1
  br i1 %34, label %35, label %39

35:                                               ; preds = %1
  %36 = load ptr, ptr %4, align 8
  %37 = getelementptr inbounds nuw %struct.varattrib_1b, ptr %36, i32 0, i32 1
  %38 = getelementptr inbounds [0 x i8], ptr %37, i64 0, i64 0
  br label %43

39:                                               ; preds = %1
  %40 = load ptr, ptr %4, align 8
  %41 = getelementptr inbounds nuw %struct.anon, ptr %40, i32 0, i32 1
  %42 = getelementptr inbounds [0 x i8], ptr %41, i64 0, i64 0
  br label %43

43:                                               ; preds = %39, %35
  %44 = phi ptr [ %38, %35 ], [ %42, %39 ]
  store ptr %44, ptr %7, align 8
  %45 = load ptr, ptr %4, align 8
  %46 = getelementptr inbounds nuw %struct.varattrib_1b, ptr %45, i32 0, i32 0
  %47 = load i8, ptr %46, align 1
  %48 = zext i8 %47 to i32
  %49 = icmp eq i32 %48, 1
  br i1 %49, label %50, label %78

50:                                               ; preds = %43
  %51 = load ptr, ptr %4, align 8
  %52 = getelementptr inbounds nuw %struct.varattrib_1b_e, ptr %51, i32 0, i32 1
  %53 = load i8, ptr %52, align 1
  %54 = zext i8 %53 to i32
  %55 = icmp eq i32 %54, 1
  br i1 %55, label %56, label %57

56:                                               ; preds = %50
  br label %74

57:                                               ; preds = %50
  %58 = load ptr, ptr %4, align 8
  %59 = getelementptr inbounds nuw %struct.varattrib_1b_e, ptr %58, i32 0, i32 1
  %60 = load i8, ptr %59, align 1
  %61 = zext i8 %60 to i32
  %62 = and i32 %61, -2
  %63 = icmp eq i32 %62, 2
  br i1 %63, label %64, label %65

64:                                               ; preds = %57
  br label %72

65:                                               ; preds = %57
  %66 = load ptr, ptr %4, align 8
  %67 = getelementptr inbounds nuw %struct.varattrib_1b_e, ptr %66, i32 0, i32 1
  %68 = load i8, ptr %67, align 1
  %69 = zext i8 %68 to i32
  %70 = icmp eq i32 %69, 18
  %71 = select i1 %70, i64 16, i64 0
  br label %72

72:                                               ; preds = %65, %64
  %73 = phi i64 [ 8, %64 ], [ %71, %65 ]
  br label %74

74:                                               ; preds = %72, %56
  %75 = phi i64 [ 8, %56 ], [ %73, %72 ]
  %76 = add i64 2, %75
  %77 = sub i64 %76, 2
  br label %104

78:                                               ; preds = %43
  %79 = load ptr, ptr %4, align 8
  %80 = getelementptr inbounds nuw %struct.varattrib_1b, ptr %79, i32 0, i32 0
  %81 = load i8, ptr %80, align 1
  %82 = zext i8 %81 to i32
  %83 = and i32 %82, 1
  %84 = icmp eq i32 %83, 1
  br i1 %84, label %85, label %94

85:                                               ; preds = %78
  %86 = load ptr, ptr %4, align 8
  %87 = getelementptr inbounds nuw %struct.varattrib_1b, ptr %86, i32 0, i32 0
  %88 = load i8, ptr %87, align 1
  %89 = zext i8 %88 to i32
  %90 = ashr i32 %89, 1
  %91 = and i32 %90, 127
  %92 = sext i32 %91 to i64
  %93 = sub i64 %92, 1
  br label %102

94:                                               ; preds = %78
  %95 = load ptr, ptr %4, align 8
  %96 = getelementptr inbounds nuw %struct.anon, ptr %95, i32 0, i32 0
  %97 = load i32, ptr %96, align 4
  %98 = lshr i32 %97, 2
  %99 = and i32 %98, 1073741823
  %100 = sub i32 %99, 4
  %101 = zext i32 %100 to i64
  br label %102

102:                                              ; preds = %94, %85
  %103 = phi i64 [ %93, %85 ], [ %101, %94 ]
  br label %104

104:                                              ; preds = %102, %74
  %105 = phi i64 [ %77, %74 ], [ %103, %102 ]
  %106 = trunc i64 %105 to i32
  store i32 %106, ptr %9, align 4
  %107 = load ptr, ptr %6, align 8
  %108 = load i32, ptr %8, align 4
  %109 = load ptr, ptr %7, align 8
  %110 = load i32, ptr %9, align 4
  %111 = load ptr, ptr %2, align 8
  %112 = getelementptr inbounds nuw %struct.FunctionCallInfoBaseData, ptr %111, i32 0, i32 3
  %113 = load i32, ptr %112, align 8
  %114 = call i32 @GenericMatchText(ptr noundef %107, i32 noundef %108, ptr noundef %109, i32 noundef %110, i32 noundef %113)
  %115 = icmp eq i32 %114, 1
  %116 = zext i1 %115 to i8
  store i8 %116, ptr %5, align 1
  %117 = load i8, ptr %5, align 1, !range !4, !noundef !5
  %118 = trunc i8 %117 to i1
  %119 = call i64 @BoolGetDatum(i1 noundef zeroext %118)
  call void @llvm.lifetime.end.p0(i64 4, ptr %9) #8
  call void @llvm.lifetime.end.p0(i64 4, ptr %8) #8
  call void @llvm.lifetime.end.p0(i64 8, ptr %7) #8
  call void @llvm.lifetime.end.p0(i64 8, ptr %6) #8
  call void @llvm.lifetime.end.p0(i64 1, ptr %5) #8
  call void @llvm.lifetime.end.p0(i64 8, ptr %4) #8
  call void @llvm.lifetime.end.p0(i64 8, ptr %3) #8
  ret i64 %119
}